; Function Attrs: mustprogress uwtable
define hidden void @_ZNK6spacer18inductive_property7to_exprEv(ptr noalias sret(%class.obj_ref) align 8 %agg.result, ptr noundef nonnull align 8 dereferenceable(24) %this) local_unnamed_addr #3 align 2 personality ptr @__gxx_personality_v0 {
entry:
  %md = alloca %class.ref.29, align 8
  store ptr null, ptr %md, align 8
  %0 = load ptr, ptr %this, align 8
  store ptr null, ptr %agg.result, align 8
  %m_manager.i = getelementptr inbounds i8, ptr %agg.result, i64 8
  store ptr %0, ptr %m_manager.i, align 8
  invoke void @_ZNK6spacer18inductive_property8to_modelER3refI5modelE(ptr noundef nonnull align 8 dereferenceable(24) %this, ptr noundef nonnull align 8 dereferenceable(8) %md)
          to label %invoke.cont3 unwind label %lpad2

invoke.cont3:                                     ; preds = %entry
  %1 = load ptr, ptr %md, align 8
  invoke void @_ZN5model8compressEb(ptr noundef nonnull align 8 dereferenceable(160) %1, i1 noundef zeroext false)
          to label %invoke.cont5 unwind label %lpad2

invoke.cont5:                                     ; preds = %invoke.cont3
  %2 = load ptr, ptr %md, align 8
  invoke void @_Z10model2exprR5modelR7obj_refI4expr11ast_managerE(ptr noundef nonnull align 8 dereferenceable(160) %2, ptr noundef nonnull align 8 dereferenceable(16) %agg.result)
          to label %nrvo.skipdtor unwind label %lpad2

lpad2:                                            ; preds = %invoke.cont5, %invoke.cont3, %entry
  %3 = landingpad { ptr, i32 }
          cleanup
  call void @_ZN7obj_refI4expr11ast_managerED2Ev(ptr noundef nonnull align 8 dereferenceable(16) %agg.result) #18
  call void @_ZN3refI5modelED2Ev(ptr noundef nonnull align 8 dereferenceable(8) %md) #18
  resume { ptr, i32 } %3

nrvo.skipdtor:                                    ; preds = %invoke.cont5
  %4 = load ptr, ptr %md, align 8
  %tobool.not.i.i = icmp eq ptr %4, null
  br i1 %tobool.not.i.i, label %_ZN3refI5modelED2Ev.exit, label %if.then.i.i

if.then.i.i:                                      ; preds = %nrvo.skipdtor
  %m_ref_count.i.i.i = getelementptr inbounds i8, ptr %4, i64 16
  %5 = load i32, ptr %m_ref_count.i.i.i, align 8
  %dec.i.i.i = add i32 %5, -1
  store i32 %dec.i.i.i, ptr %m_ref_count.i.i.i, align 8
  %cmp.i.i.i = icmp eq i32 %dec.i.i.i, 0
  br i1 %cmp.i.i.i, label %if.then.i.i.i, label %_ZN3refI5modelED2Ev.exit

if.then.i.i.i:                                    ; preds = %if.then.i.i
  %vtable.i.i.i.i = load ptr, ptr %4, align 8
  %6 = load ptr, ptr %vtable.i.i.i.i, align 8
  call void %6(ptr noundef nonnull align 8 dereferenceable(96) %4) #18
  invoke void @_ZN6memory10deallocateEPv(ptr noundef nonnull %4)
          to label %_ZN3refI5modelED2Ev.exit unwind label %terminate.lpad.i

terminate.lpad.i:                                 ; preds = %if.then.i.i.i
  %7 = landingpad { ptr, i32 }
          catch ptr null
  %8 = extractvalue { ptr, i32 } %7, 0
  call void @__clang_call_terminate(ptr %8) #19
  unreachable

_ZN3refI5modelED2Ev.exit:                         ; preds = %nrvo.skipdtor, %if.then.i.i, %if.then.i.i.i
  ret void
}